(lp0
(dp1
S'071_nine_hole_peg_test'
p2
ccopy_reg
_reconstructor
p3
(cperls.math.pose
Pose
p4
cdill._dill
_load_type
p5
(S'ObjectType'
p6
tp7
Rp8
Ntp9
Rp10
(dp11
S'_euler'
p12
NsS'_matrix3'
p13
NsS'_quaternion'
p14
cnumpy.core.multiarray
_reconstruct
p15
(cnumpy
ndarray
p16
(I0
tp17
S'b'
p18
tp19
Rp20
(I1
(I4
tp21
cnumpy
dtype
p22
(S'f4'
p23
I0
I1
tp24
Rp25
(I3
S'<'
p26
NNNI-1
I-1
I0
tp27
bI00
S'Z\x883?\xb3\x036?\xe2\x0b\xbc<v{=='
p28
tp29
bsS'_position'
p30
g15
(g16
(I0
tp31
g18
tp32
Rp33
(I1
(I3
tp34
g25
I00
S"\x819'?\xea\x14\x8d\xbd\x01M\xd5="
p35
tp36
bsbsS'042_adjustable_wrench'
p37
g3
(g4
g8
Ntp38
Rp39
(dp40
g12
Nsg13
Nsg14
g15
(g16
(I0
tp41
g18
tp42
Rp43
(I1
(I4
tp44
g25
I00
S'\x02\xa3s<-\xfap>\xdc\x91\x0b\xbfW\xf1M?'
p45
tp46
bsg30
g15
(g16
(I0
tp47
g18
tp48
Rp49
(I1
(I3
tp50
g25
I00
S'\xd7\xf3!?\x05V\x82\xbdU\nj='
p51
tp52
bsbsS'031_spoon'
p53
g3
(g4
g8
Ntp54
Rp55
(dp56
g12
Nsg13
Nsg14
g15
(g16
(I0
tp57
g18
tp58
Rp59
(I1
(I4
tp60
g25
I00
S'\x9d\xc4\x93:\xc6\xa6\x8c;\xa3\xef\x04\xbf\x86\xc6Z?'
p61
tp62
bsg30
g15
(g16
(I0
tp63
g18
tp64
Rp65
(I1
(I3
tp66
g25
I00
S'_\xecB?\xdeAu=\x91\x19Q<'
p67
tp68
bsbsS'014_lemon'
p69
g3
(g4
g8
Ntp70
Rp71
(dp72
g12
Nsg13
Nsg14
g15
(g16
(I0
tp73
g18
tp74
Rp75
(I1
(I4
tp76
g25
I00
S'\xb5\xbe4?\x9c.c\xbdU\x95\x0e?\xc7!\xde\xbe'
p77
tp78
bsg30
g15
(g16
(I0
tp79
g18
tp80
Rp81
(I1
(I3
tp82
g25
I00
S'\xe0\xfa+?\x89\x7f!\xbeB\xdc\xed<'
p83
tp84
bsbsS'061_foam_brick'
p85
g3
(g4
g8
Ntp86
Rp87
(dp88
g12
Nsg13
Nsg14
g15
(g16
(I0
tp89
g18
tp90
Rp91
(I1
(I4
tp92
g25
I00
S'\x0e\xea*\xbfW\x88>?\xaa\xc89<\xe1\xb1h<'
p93
tp94
bsg30
g15
(g16
(I0
tp95
g18
tp96
Rp97
(I1
(I3
tp98
g25
I00
S'\xa4\x8e!?d\x06\x18=\x03s\xcb<'
p99
tp100
bsbsS'073-d_lego_duplo'
p101
g3
(g4
g8
Ntp102
Rp103
(dp104
g12
Nsg13
Nsg14
g15
(g16
(I0
tp105
g18
tp106
Rp107
(I1
(I4
tp108
g25
I00
S'\xfdJ\xc6\xbe^\xc0\x19?\xb4N0?E\xb7\xfa='
p109
tp110
bsg30
g15
(g16
(I0
tp111
g18
tp112
Rp113
(I1
(I3
tp114
g25
I00
S'[\x990?Cw\xc6\xbdB\xdd\xc5<'
p115
tp116
bsbsS'028_skillet_lid'
p117
g3
(g4
g8
Ntp118
Rp119
(dp120
g12
Nsg13
Nsg14
g15
(g16
(I0
tp121
g18
tp122
Rp123
(I1
(I4
tp124
g25
I00
S'\x10jv>\xabBo?O\xc5\xe0=T\x82s\xbe'
p125
tp126
bsg30
g15
(g16
(I0
tp127
g18
tp128
Rp129
(I1
(I3
tp130
g25
I00
S'2r\n?\x82\x0f\x91\xbdS\xa6\x86='
p131
tp132
bsbsS'054_softball'
p133
g3
(g4
g8
Ntp134
Rp135
(dp136
g12
Nsg13
Nsg14
g15
(g16
(I0
tp137
g18
tp138
Rp139
(I1
(I4
tp140
g25
I00
S'e5\xc3>(\xe8\x90\xbd\xb6\x18%?s\x98(?'
p141
tp142
bsg30
g15
(g16
(I0
tp143
g18
tp144
Rp145
(I1
(I3
tp146
g25
I00
S'\xd7\x97@?\xc9\x07\x99\xbd\xf0\xa7H='
p147
tp148
bsbsS'018_plum'
p149
g3
(g4
g8
Ntp150
Rp151
(dp152
g12
Nsg13
Nsg14
g15
(g16
(I0
tp153
g18
tp154
Rp155
(I1
(I4
tp156
g25
I00
S'\xd4\x90\x9f\xbd#}Y?$u\x04\xbf\x89\xa6\x88\xbd'
p157
tp158
bsg30
g15
(g16
(I0
tp159
g18
tp160
Rp161
(I1
(I3
tp162
g25
I00
S'\xb7\xcc"?\xd5\xf2R\xbe\x94\xa0\xf8<'
p163
tp164
bsbsS'026_sponge'
p165
g3
(g4
g8
Ntp166
Rp167
(dp168
g12
Nsg13
Nsg14
g15
(g16
(I0
tp169
g18
tp170
Rp171
(I1
(I4
tp172
g25
I00
S'\xe9\x1cp?\xect\xb1>\xf4\xfb3<MS\x89\xbb'
p173
tp174
bsg30
g15
(g16
(I0
tp175
g18
tp176
Rp177
(I1
(I3
tp178
g25
I00
S"|'&??\x81!>\xe2iA<"
p179
tp180
bsbsa(dp181
S'065-f_cups'
p182
g3
(g4
g8
Ntp183
Rp184
(dp185
g12
Nsg13
Nsg14
g15
(g16
(I0
tp186
g18
tp187
Rp188
(I1
(I4
tp189
g25
I00
S'\x1f\xf0\x01\xbe\x81\xd5(\xbfc&\\>&\x835?'
p190
tp191
bsg30
g15
(g16
(I0
tp192
g18
tp193
Rp194
(I1
(I3
tp195
g25
I00
S'_y\x04?\xf0\xe3\xa5\xbd\xa9`\x1d='
p196
tp197
bsbsS'058_golf_ball'
p198
g3
(g4
g8
Ntp199
Rp200
(dp201
g12
Nsg13
Nsg14
g15
(g16
(I0
tp202
g18
tp203
Rp204
(I1
(I4
tp205
g25
I00
S'\xbd\x19(\xbfIF\x8a=gG\x0e?L^\x01?'
p206
tp207
bsg30
g15
(g16
(I0
tp208
g18
tp209
Rp210
(I1
(I3
tp211
g25
I00
S'\xf5\xa1\xd7>D\xe36>\xbd\x9f\xc8<'
p212
tp213
bsbsS'042_adjustable_wrench'
p214
g3
(g4
g8
Ntp215
Rp216
(dp217
g12
Nsg13
Nsg14
g15
(g16
(I0
tp218
g18
tp219
Rp220
(I1
(I4
tp221
g25
I00
S"\x82}\x86\xbb#C\x15\xbd$\xe5'\xbf\xb4\x06A?"
p222
tp223
bsg30
g15
(g16
(I0
tp224
g18
tp225
Rp226
(I1
(I3
tp227
g25
I00
S'\xde\xd6\x0c?h\xe7\x13<\xca\x9d\xc4;'
p228
tp229
bsbsS'070-b_colored_wood_blocks'
p230
g3
(g4
g8
Ntp231
Rp232
(dp233
g12
Nsg13
Nsg14
g15
(g16
(I0
tp234
g18
tp235
Rp236
(I1
(I4
tp237
g25
I00
S'\xd1X\x89\xbb\r\xe3\x9e\xbb\x14/\x7f?:\xdf\xa2='
p238
tp239
bsg30
g15
(g16
(I0
tp240
g18
tp241
Rp242
(I1
(I3
tp243
g25
I00
S'\xe9\xc5\x1a?)\x1b\xcd;\x993R<'
p244
tp245
bsbsS'056_tennis_ball'
p246
g3
(g4
g8
Ntp247
Rp248
(dp249
g12
Nsg13
Nsg14
g15
(g16
(I0
tp250
g18
tp251
Rp252
(I1
(I4
tp253
g25
I00
S'-m\x15\xbf\x18\xa3\xaa\xbe<\xc3\xb4\xbe\xc6\x9c&?'
p254
tp255
bsg30
g15
(g16
(I0
tp256
g18
tp257
Rp258
(I1
(I3
tp259
g25
I00
S'\x92wD?\x01\xed\xf0\xbc\xebt\n='
p260
tp261
bsbsS'030_fork'
p262
g3
(g4
g8
Ntp263
Rp264
(dp265
g12
Nsg13
Nsg14
g15
(g16
(I0
tp266
g18
tp267
Rp268
(I1
(I4
tp269
g25
I00
S'.\xa9\xcf>\xfc1e?\x14\xf8&=\xa9\xfe7\xbe'
p270
tp271
bsg30
g15
(g16
(I0
tp272
g18
tp273
Rp274
(I1
(I3
tp275
g25
I00
S"\xf3I%?\x03'\xe2<\x97\\\x04="
p276
tp277
bsbsS'065-b_cups'
p278
g3
(g4
g8
Ntp279
Rp280
(dp281
g12
Nsg13
Nsg14
g15
(g16
(I0
tp282
g18
tp283
Rp284
(I1
(I4
tp285
g25
I00
S'n\xe4\x0b?\xd7\xf1\xc2>%\xa01?\xc84\x8c\xbe'
p286
tp287
bsg30
g15
(g16
(I0
tp288
g18
tp289
Rp290
(I1
(I3
tp291
g25
I00
S'\xbf\xf0\x18?\x17&\xe1=@\xc3\xed<'
p292
tp293
bsbsS'013_apple'
p294
g3
(g4
g8
Ntp295
Rp296
(dp297
g12
Nsg13
Nsg14
g15
(g16
(I0
tp298
g18
tp299
Rp300
(I1
(I4
tp301
g25
I00
S'\xd2*\x1d\xbe\x17\x13x\xbed\xeb@\xbfnk\x17?'
p302
tp303
bsg30
g15
(g16
(I0
tp304
g18
tp305
Rp306
(I1
(I3
tp307
g25
I00
S'\x05\xe2\x11?\np\x13=\xab6Y='
p308
tp309
bsbsS'065-e_cups'
p310
g3
(g4
g8
Ntp311
Rp312
(dp313
g12
Nsg13
Nsg14
g15
(g16
(I0
tp314
g18
tp315
Rp316
(I1
(I4
tp317
g25
I00
S'\x18s\xa3>\x0ft\x16?\x89\xea.?\xa5\x00\x96\xbe'
p318
tp319
bsg30
g15
(g16
(I0
tp320
g18
tp321
Rp322
(I1
(I3
tp323
g25
I00
S'\x18;B?v\x041=\x01l\x0e='
p324
tp325
bsbsS'050_medium_clamp'
p326
g3
(g4
g8
Ntp327
Rp328
(dp329
g12
Nsg13
Nsg14
g15
(g16
(I0
tp330
g18
tp331
Rp332
(I1
(I4
tp333
g25
I00
S'/\x86\x03\xbfFq[?\xf7<\x0b\xbc\xc9\x01\r\xbd'
p334
tp335
bsg30
g15
(g16
(I0
tp336
g18
tp337
Rp338
(I1
(I3
tp339
g25
I00
S'\x11Y\x1f? \xcf\r\xbd6\x03\\<'
p340
tp341
bsbsa(dp342
S'037_scissors'
p343
g3
(g4
g8
Ntp344
Rp345
(dp346
g12
Nsg13
Nsg14
g15
(g16
(I0
tp347
g18
tp348
Rp349
(I1
(I4
tp350
g25
I00
S'\xdf\xa9#\xbf3\xc1D?\x0er\x8b\xbc\xee\xea\x8a\xbc'
p351
tp352
bsg30
g15
(g16
(I0
tp353
g18
tp354
Rp355
(I1
(I3
tp356
g25
I00
S'\xa4\x7f%?x\xbbs\xbd\xcd@\t<'
p357
tp358
bsbsS'005_tomato_soup_can'
p359
g3
(g4
g8
Ntp360
Rp361
(dp362
g12
Nsg13
Nsg14
g15
(g16
(I0
tp363
g18
tp364
Rp365
(I1
(I4
tp366
g25
I00
S':A\xa7>t\xff\x1d\xbf\xac\xe6\xb5>\t\x15\x1f?'
p367
tp368
bsg30
g15
(g16
(I0
tp369
g18
tp370
Rp371
(I1
(I3
tp372
g25
I00
S'\x17\xa1\xf3>\x9c8C\xbd\xa4r\x0b='
p373
tp374
bsbsS'073-f_lego_duplo'
p375
g3
(g4
g8
Ntp376
Rp377
(dp378
g12
Nsg13
Nsg14
g15
(g16
(I0
tp379
g18
tp380
Rp381
(I1
(I4
tp382
g25
I00
S'\xf1\x03-\xbf\xa5jh\xbe\x1a\xe1\x00>\x88\x990?'
p383
tp384
bsg30
g15
(g16
(I0
tp385
g18
tp386
Rp387
(I1
(I3
tp388
g25
I00
S'N\x87\x11?\xe9;\x1d\xbeW\xb4\x9a<'
p389
tp390
bsbsS'032_knife'
p391
g3
(g4
g8
Ntp392
Rp393
(dp394
g12
Nsg13
Nsg14
g15
(g16
(I0
tp395
g18
tp396
Rp397
(I1
(I4
tp398
g25
I00
S'\xd9/O?\xdd\xfc\xf8\xbd\x8a[\x91\xbdm\xfb\x11?'
p399
tp400
bsg30
g15
(g16
(I0
tp401
g18
tp402
Rp403
(I1
(I3
tp404
g25
I00
S's\xd5\x07?\xb7\x9e\x96<\x15n\x17<'
p405
tp406
bsbsS'018_plum'
p407
g3
(g4
g8
Ntp408
Rp409
(dp410
g12
Nsg13
Nsg14
g15
(g16
(I0
tp411
g18
tp412
Rp413
(I1
(I4
tp414
g25
I00
S'\xd0\xdb\x7f>\xbdR\x11?\x11\x87\x06?4\x17\x15?'
p415
tp416
bsg30
g15
(g16
(I0
tp417
g18
tp418
Rp419
(I1
(I3
tp420
g25
I00
S'\xfc\x8d\xda>\xad>\x1e\xbc\x19\xff\xce<'
p421
tp422
bsbsS'065-b_cups'
p423
g3
(g4
g8
Ntp424
Rp425
(dp426
g12
Nsg13
Nsg14
g15
(g16
(I0
tp427
g18
tp428
Rp429
(I1
(I4
tp430
g25
I00
S"4\x17%\xbf\xc7\x9c]\xbe}d\xa9\xbe%r'?"
p431
tp432
bsg30
g15
(g16
(I0
tp433
g18
tp434
Rp435
(I1
(I3
tp436
g25
I00
S'&\x93=?t\xca\x9a\xbd \xfc\xe8<'
p437
tp438
bsbsS'024_bowl'
p439
g3
(g4
g8
Ntp440
Rp441
(dp442
g12
Nsg13
Nsg14
g15
(g16
(I0
tp443
g18
tp444
Rp445
(I1
(I4
tp446
g25
I00
S'\x81\x8cx?\x84\x16t>\xd06\xa1\xbc\x82zN<'
p447
tp448
bsg30
g15
(g16
(I0
tp449
g18
tp450
Rp451
(I1
(I3
tp452
g25
I00
S'\x00,\x1c?\x9b\xf9\xc3=\x1b\xe4\xb0='
p453
tp454
bsbsS'050_medium_clamp'
p455
g3
(g4
g8
Ntp456
Rp457
(dp458
g12
Nsg13
Nsg14
g15
(g16
(I0
tp459
g18
tp460
Rp461
(I1
(I4
tp462
g25
I00
S'\xac\x19\x93>\x05\xbc@?)+\x16?\xb1\xbc\xa5='
p463
tp464
bsg30
g15
(g16
(I0
tp465
g18
tp466
Rp467
(I1
(I3
tp468
g25
I00
S'\xa6\x07\r?<\xe5$\xbc{\xd4\xc7<'
p469
tp470
bsbsS'065-j_cups'
p471
g3
(g4
g8
Ntp472
Rp473
(dp474
g12
Nsg13
Nsg14
g15
(g16
(I0
tp475
g18
tp476
Rp477
(I1
(I4
tp478
g25
I00
S"\xd8_%?'6\xd2\xbd9\x9a4\xbd\xd2OA?"
p479
tp480
bsg30
g15
(g16
(I0
tp481
g18
tp482
Rp483
(I1
(I3
tp484
g25
I00
S'\xfd[@?`\xc2\x1d\xbe\xae\x97I='
p485
tp486
bsbsS'035_power_drill'
p487
g3
(g4
g8
Ntp488
Rp489
(dp490
g12
Nsg13
Nsg14
g15
(g16
(I0
tp491
g18
tp492
Rp493
(I1
(I4
tp494
g25
I00
S'\xd9l!\xbc\xc0\x94\x8a\xbc4\xdcC\xbf\x87\xc5$?'
p495
tp496
bsg30
g15
(g16
(I0
tp497
g18
tp498
Rp499
(I1
(I3
tp500
g25
I00
S'\xe2\x85\x17?E\xfc\x9e=-\x9d\xe8<'
p501
tp502
bsbsa(dp503
S'044_flat_screwdriver'
p504
g3
(g4
g8
Ntp505
Rp506
(dp507
g12
Nsg13
Nsg14
g15
(g16
(I0
tp508
g18
tp509
Rp510
(I1
(I4
tp511
g25
I00
S'\x96\xf2\x16\xbf:\xba\xd9>\t\xa0\xaf=\x05h.?'
p512
tp513
bsg30
g15
(g16
(I0
tp514
g18
tp515
Rp516
(I1
(I3
tp517
g25
I00
S'\x0c\xc9,?b\x8fF=\xf3O\x8c<'
p518
tp519
bsbsS'030_fork'
p520
g3
(g4
g8
Ntp521
Rp522
(dp523
g12
Nsg13
Nsg14
g15
(g16
(I0
tp524
g18
tp525
Rp526
(I1
(I4
tp527
g25
I00
S'\x9b\xe6T?\x822\x00?\xa2\xd9A>\xd2\r\x17\xbe'
p528
tp529
bsg30
g15
(g16
(I0
tp530
g18
tp531
Rp532
(I1
(I3
tp533
g25
I00
S'~\xdc\x0e?(^\x80\xbd\x8cZ9='
p534
tp535
bsbsS'065-c_cups'
p536
g3
(g4
g8
Ntp537
Rp538
(dp539
g12
Nsg13
Nsg14
g15
(g16
(I0
tp540
g18
tp541
Rp542
(I1
(I4
tp543
g25
I00
S'\x16\x08\xff\xbe\xba\xda\xea>_\xff\xfc\xbe^\x96\x0b?'
p544
tp545
bsg30
g15
(g16
(I0
tp546
g18
tp547
Rp548
(I1
(I3
tp549
g25
I00
S'\xdd1\x14?]\xf0K\xbc\x9aG\xf3<'
p550
tp551
bsbsS'033_spatula'
p552
g3
(g4
g8
Ntp553
Rp554
(dp555
g12
Nsg13
Nsg14
g15
(g16
(I0
tp556
g18
tp557
Rp558
(I1
(I4
tp559
g25
I00
S'\xb4\x93\x02\xbc\x91\x85\x06>\xbe\x10b?6\x9c\xe6>'
p560
tp561
bsg30
g15
(g16
(I0
tp562
g18
tp563
Rp564
(I1
(I3
tp565
g25
I00
S'W\xf73?\xc3\xb9\x7f=\xda\xa98='
p566
tp567
bsbsS'014_lemon'
p568
g3
(g4
g8
Ntp569
Rp570
(dp571
g12
Nsg13
Nsg14
g15
(g16
(I0
tp572
g18
tp573
Rp574
(I1
(I4
tp575
g25
I00
S"Ld\x92=\x8d\xaaK?'G\xe3>\xd8\xea\xcf>"
p576
tp577
bsg30
g15
(g16
(I0
tp578
g18
tp579
Rp580
(I1
(I3
tp581
g25
I00
S'\xe5\x02\x1d?]\xff\xa9\xbd\x0f\x8b\xe4<'
p582
tp583
bsbsS'007_tuna_fish_can'
p584
g3
(g4
g8
Ntp585
Rp586
(dp587
g12
Nsg13
Nsg14
g15
(g16
(I0
tp588
g18
tp589
Rp590
(I1
(I4
tp591
g25
I00
S'9\xec\xa9\xbd9Pb?1\x83*\xbd\n\x8d\xea\xbe'
p592
tp593
bsg30
g15
(g16
(I0
tp594
g18
tp595
Rp596
(I1
(I3
tp597
g25
I00
S'\x05X)?\x93\xf6\xc9\xbdp\xd2:='
p598
tp599
bsbsS'043_phillips_screwdriver'
p600
g3
(g4
g8
Ntp601
Rp602
(dp603
g12
Nsg13
Nsg14
g15
(g16
(I0
tp604
g18
tp605
Rp606
(I1
(I4
tp607
g25
I00
S'\x858\x93>:}\xe3>\xa0\x94\xef>\xbf05?'
p608
tp609
bsg30
g15
(g16
(I0
tp610
g18
tp611
Rp612
(I1
(I3
tp613
g25
I00
S'\x96\xc2\xd5>\x16"\xc4=\xa7\x00\x93<'
p614
tp615
bsbsS'015_peach'
p616
g3
(g4
g8
Ntp617
Rp618
(dp619
g12
Nsg13
Nsg14
g15
(g16
(I0
tp620
g18
tp621
Rp622
(I1
(I4
tp623
g25
I00
S'\x9dGE?i\xe4\xf6>\xe3\xb6\x15\xbe\xbb\xc4\xc7>'
p624
tp625
bsg30
g15
(g16
(I0
tp626
g18
tp627
Rp628
(I1
(I3
tp629
g25
I00
S'\xc7\xee\x00?\xcd-\xca\xbc8\x7f\xd7<'
p630
tp631
bsbsS'024_bowl'
p632
g3
(g4
g8
Ntp633
Rp634
(dp635
g12
Nsg13
Nsg14
g15
(g16
(I0
tp636
g18
tp637
Rp638
(I1
(I4
tp639
g25
I00
S'\xf2\x0f\x7f?\xe8\xc7\xa4=W]\x03;\x8e\xb0\xec<'
p640
tp641
bsg30
g15
(g16
(I0
tp642
g18
tp643
Rp644
(I1
(I3
tp645
g25
I00
S'# 7?\xcd\x13E\xbe\xf6y\x15='
p646
tp647
bsbsS'038_padlock'
p648
g3
(g4
g8
Ntp649
Rp650
(dp651
g12
Nsg13
Nsg14
g15
(g16
(I0
tp652
g18
tp653
Rp654
(I1
(I4
tp655
g25
I00
S'O\xbb\xe3\xbeS<\x97\xbd\x1e\xf9A?\xf6\x8e\xf1\xbe'
p656
tp657
bsg30
g15
(g16
(I0
tp658
g18
tp659
Rp660
(I1
(I3
tp661
g25
I00
S'\x1eS.?[\x85d:\xd3\x8d\xd0<'
p662
tp663
bsbsa(dp664
S'058_golf_ball'
p665
g3
(g4
g8
Ntp666
Rp667
(dp668
g12
Nsg13
Nsg14
g15
(g16
(I0
tp669
g18
tp670
Rp671
(I1
(I4
tp672
g25
I00
S'^\xabf?1Po>\xf8\x05\xb8\xbdrQ\xb5>'
p673
tp674
bsg30
g15
(g16
(I0
tp675
g18
tp676
Rp677
(I1
(I3
tp678
g25
I00
S'W\xc0+?O\xa3\x958S\xcc\xab<'
p679
tp680
bsbsS'028_skillet_lid'
p681
g3
(g4
g8
Ntp682
Rp683
(dp684
g12
Nsg13
Nsg14
g15
(g16
(I0
tp685
g18
tp686
Rp687
(I1
(I4
tp688
g25
I00
S'I\xccx?j*<\xbe\x0c\xde\xe9\xbd{\xac\xbe='
p689
tp690
bsg30
g15
(g16
(I0
tp691
g18
tp692
Rp693
(I1
(I3
tp694
g25
I00
S'\xe32\x1d?\x02\xf7\xe7\xbd\xebV\x98='
p695
tp696
bsbsS'042_adjustable_wrench'
p697
g3
(g4
g8
Ntp698
Rp699
(dp700
g12
Nsg13
Nsg14
g15
(g16
(I0
tp701
g18
tp702
Rp703
(I1
(I4
tp704
g25
I00
S'\x0f\xf5+\xbf\xb4f=?.\xbd\x04\xbc3r\x17='
p705
tp706
bsg30
g15
(g16
(I0
tp707
g18
tp708
Rp709
(I1
(I3
tp710
g25
I00
S'\xa0]/?\x1b\x17\x9d=\xd7J\xe6;'
p711
tp712
bsbsS'031_spoon'
p713
g3
(g4
g8
Ntp714
Rp715
(dp716
g12
Nsg13
Nsg14
g15
(g16
(I0
tp717
g18
tp718
Rp719
(I1
(I4
tp720
g25
I00
S'\xf4\x96\x0c?ek\x06?\x8b\x91\x0f?\x8fg\xa8>'
p721
tp722
bsg30
g15
(g16
(I0
tp723
g18
tp724
Rp725
(I1
(I3
tp726
g25
I00
S'\xa1cG?\x87/\xe2=\xb8\xd2\x9c<'
p727
tp728
bsbsS'017_orange'
p729
g3
(g4
g8
Ntp730
Rp731
(dp732
g12
Nsg13
Nsg14
g15
(g16
(I0
tp733
g18
tp734
Rp735
(I1
(I4
tp736
g25
I00
S'\xa3\t\x02?\xd6\xdf\xdf\xbe\xce\xc0\xbc>T\xe4$?'
p737
tp738
bsg30
g15
(g16
(I0
tp739
g18
tp740
Rp741
(I1
(I3
tp742
g25
I00
S'\xe5\x8e"?\x00\xa0q\xbeVc%='
p743
tp744
bsbsS'030_fork'
p745
g3
(g4
g8
Ntp746
Rp747
(dp748
g12
Nsg13
Nsg14
g15
(g16
(I0
tp749
g18
tp750
Rp751
(I1
(I4
tp752
g25
I00
S'%!B=M\xe0\xb3\xbc\xa3\x8e\xed>\xcfab?'
p753
tp754
bsg30
g15
(g16
(I0
tp755
g18
tp756
Rp757
(I1
(I3
tp758
g25
I00
S'\xb8\x04"?\x17\x97\xd7<{8\x7f<'
p759
tp760
bsbsS'012_strawberry'
p761
g3
(g4
g8
Ntp762
Rp763
(dp764
g12
Nsg13
Nsg14
g15
(g16
(I0
tp765
g18
tp766
Rp767
(I1
(I4
tp768
g25
I00
S'\xbcR%?;\x81\xb3>+j\x07>>M*?'
p769
tp770
bsg30
g15
(g16
(I0
tp771
g18
tp772
Rp773
(I1
(I3
tp774
g25
I00
S'\x8c\xb1B?A\xdb\xd1\xbd=\x85\xad<'
p775
tp776
bsbsS'065-d_cups'
p777
g3
(g4
g8
Ntp778
Rp779
(dp780
g12
Nsg13
Nsg14
g15
(g16
(I0
tp781
g18
tp782
Rp783
(I1
(I4
tp784
g25
I00
S'\xe46\x12?U\xc1\xb5\xbe\xa71\x0f\xbfY%\xf8>'
p785
tp786
bsg30
g15
(g16
(I0
tp787
g18
tp788
Rp789
(I1
(I3
tp790
g25
I00
S'f\xb7A?Z>\xca\xbb8\r\x02='
p791
tp792
bsbsS'073-g_lego_duplo'
p793
g3
(g4
g8
Ntp794
Rp795
(dp796
g12
Nsg13
Nsg14
g15
(g16
(I0
tp797
g18
tp798
Rp799
(I1
(I4
tp800
g25
I00
S'\xce4\xa8\xba\xce\x84\x10<\xf9\xe8\x7f?8}\xcc\xbc'
p801
tp802
bsg30
g15
(g16
(I0
tp803
g18
tp804
Rp805
(I1
(I3
tp806
g25
I00
S'\x0e|\xfd>A\x8f\x8c\xbc\nT\x11='
p807
tp808
bsbsS'006_mustard_bottle'
p809
g3
(g4
g8
Ntp810
Rp811
(dp812
g12
Nsg13
Nsg14
g15
(g16
(I0
tp813
g18
tp814
Rp815
(I1
(I4
tp816
g25
I00
S'"x5?\xd1#\xb7=\xd5\xa21?N\x86\xb7='
p817
tp818
bsg30
g15
(g16
(I0
tp819
g18
tp820
Rp821
(I1
(I3
tp822
g25
I00
S'\xe5_\t?\xd9\xdd\x8a>$\xaaJ='
p823
tp824
bsbsa(dp825
S'044_flat_screwdriver'
p826
g3
(g4
g8
Ntp827
Rp828
(dp829
g12
Nsg13
Nsg14
g15
(g16
(I0
tp830
g18
tp831
Rp832
(I1
(I4
tp833
g25
I00
S'\xa5L\xa4>\x14u\x7f>\xacGT?\x90m\xc4>'
p834
tp835
bsg30
g15
(g16
(I0
tp836
g18
tp837
Rp838
(I1
(I3
tp839
g25
I00
S'\xfb\xe4+?\xa2Kq=/\xfa\xe9<'
p840
tp841
bsbsS'065-c_cups'
p842
g3
(g4
g8
Ntp843
Rp844
(dp845
g12
Nsg13
Nsg14
g15
(g16
(I0
tp846
g18
tp847
Rp848
(I1
(I4
tp849
g25
I00
S'\xe2\xa3\r?{\x94\xc8\xbe\x07\x0f\xd6>\xdd\xca\x1a?'
p850
tp851
bsg30
g15
(g16
(I0
tp852
g18
tp853
Rp854
(I1
(I3
tp855
g25
I00
S'\x05\xbd\xde>\xc0Tn<\xe6\x0f\xf4<'
p856
tp857
bsbsS'017_orange'
p858
g3
(g4
g8
Ntp859
Rp860
(dp861
g12
Nsg13
Nsg14
g15
(g16
(I0
tp862
g18
tp863
Rp864
(I1
(I4
tp865
g25
I00
S'\xd5%\x07\xbd\x0bHt?/\x19\xe7=\x02\xcf\x8c\xbe'
p866
tp867
bsg30
g15
(g16
(I0
tp868
g18
tp869
Rp870
(I1
(I3
tp871
g25
I00
S'\x8f\\C?\xccW\xac=\xf60\x1b='
p872
tp873
bsbsS'073-d_lego_duplo'
p874
g3
(g4
g8
Ntp875
Rp876
(dp877
g12
Nsg13
Nsg14
g15
(g16
(I0
tp878
g18
tp879
Rp880
(I1
(I4
tp881
g25
I00
S'\xf1\xe02?s\x7f\x14>\xd1e\xaf\xbe\x10m\x1c?'
p882
tp883
bsg30
g15
(g16
(I0
tp884
g18
tp885
Rp886
(I1
(I3
tp887
g25
I00
S'&\x1a6?;\x91W=\xe1\xea\xb9<'
p888
tp889
bsbsS'073-g_lego_duplo'
p890
g3
(g4
g8
Ntp891
Rp892
(dp893
g12
Nsg13
Nsg14
g15
(g16
(I0
tp894
g18
tp895
Rp896
(I1
(I4
tp897
g25
I00
S'\xe8@\xa0\xbe\x7fz\xf3>\xa3\xeb\x86>#\\G?'
p898
tp899
bsg30
g15
(g16
(I0
tp900
g18
tp901
Rp902
(I1
(I3
tp903
g25
I00
S'a3\x15?+\xcf\xbb<\x04\xea\xb8='
p904
tp905
bsbsS'006_mustard_bottle'
p906
g3
(g4
g8
Ntp907
Rp908
(dp909
g12
Nsg13
Nsg14
g15
(g16
(I0
tp910
g18
tp911
Rp912
(I1
(I4
tp913
g25
I00
S'\xa7C\x9e>\x14\xf0$?d\xa42?\xca:H='
p914
tp915
bsg30
g15
(g16
(I0
tp916
g18
tp917
Rp918
(I1
(I3
tp919
g25
I00
S'C\x1a<?\xa0JH\xbd\x9a\x00\xf1<'
p920
tp921
bsbsS'065-i_cups'
p922
g3
(g4
g8
Ntp923
Rp924
(dp925
g12
Nsg13
Nsg14
g15
(g16
(I0
tp926
g18
tp927
Rp928
(I1
(I4
tp929
g25
I00
S'\x18B%?\x0e\xe6\x03>KR3?s+\x8d\xbe'
p930
tp931
bsg30
g15
(g16
(I0
tp932
g18
tp933
Rp934
(I1
(I3
tp935
g25
I00
S'\xec:9?\xbfO!>`\x88@='
p936
tp937
bsbsS'050_medium_clamp'
p938
g3
(g4
g8
Ntp939
Rp940
(dp941
g12
Nsg13
Nsg14
g15
(g16
(I0
tp942
g18
tp943
Rp944
(I1
(I4
tp945
g25
I00
S"\x8e0\x99\xbdC\xe8\xe7\xbc$'\x7f?\xcc\xcam\xbc"
p946
tp947
bsg30
g15
(g16
(I0
tp948
g18
tp949
Rp950
(I1
(I3
tp951
g25
I00
S'\x7f\x87\x19?\xc2J\x10=\xa0\rf<'
p952
tp953
bsbsS'051_large_clamp'
p954
g3
(g4
g8
Ntp955
Rp956
(dp957
g12
Nsg13
Nsg14
g15
(g16
(I0
tp958
g18
tp959
Rp960
(I1
(I4
tp961
g25
I00
S'\xaemn?\x8f\x01\xb7\xbe\nTU\xbd\x1d|;='
p962
tp963
bsg30
g15
(g16
(I0
tp964
g18
tp965
Rp966
(I1
(I3
tp967
g25
I00
S'\x1c\x80\x14?\xa2Q\x82\xbd,4\x9d<'
p968
tp969
bsbsS'073-c_lego_duplo'
p970
g3
(g4
g8
Ntp971
Rp972
(dp973
g12
Nsg13
Nsg14
g15
(g16
(I0
tp974
g18
tp975
Rp976
(I1
(I4
tp977
g25
I00
S'\xd3Nj?R.\xce>\xa5E\x8b;r\x14)\xbc'
p978
tp979
bsg30
g15
(g16
(I0
tp980
g18
tp981
Rp982
(I1
(I3
tp983
g25
I00
S'\x8dz\x00?\xda;-=#\nQ<'
p984
tp985
bsbsa(dp986
S'030_fork'
p987
g3
(g4
g8
Ntp988
Rp989
(dp990
g12
Nsg13
Nsg14
g15
(g16
(I0
tp991
g18
tp992
Rp993
(I1
(I4
tp994
g25
I00
S'\x1b\x1d\x98\xbcE]\x00=\x86\xe0m?\xfbJ\xbc\xbe'
p995
tp996
bsg30
g15
(g16
(I0
tp997
g18
tp998
Rp999
(I1
(I3
tp1000
g25
I00
S'\xb8r\x1a?\x10!D=P$\xf3;'
p1001
tp1002
bsbsS'073-f_lego_duplo'
p1003
g3
(g4
g8
Ntp1004
Rp1005
(dp1006
g12
Nsg13
Nsg14
g15
(g16
(I0
tp1007
g18
tp1008
Rp1009
(I1
(I4
tp1010
g25
I00
S'Y\xf0*>\x04\x8f.?\xf0\xbc(?b\x14\x8a>'
p1011
tp1012
bsg30
g15
(g16
(I0
tp1013
g18
tp1014
Rp1015
(I1
(I3
tp1016
g25
I00
S"!'\x1e?\xbb\xdc\xe2=\x98*\x94<"
p1017
tp1018
bsbsS'015_peach'
p1019
g3
(g4
g8
Ntp1020
Rp1021
(dp1022
g12
Nsg13
Nsg14
g15
(g16
(I0
tp1023
g18
tp1024
Rp1025
(I1
(I4
tp1026
g25
I00
S'\\-\xdf\xbe9PO?\xc9/\xb8>\xb81!>'
p1027
tp1028
bsg30
g15
(g16
(I0
tp1029
g18
tp1030
Rp1031
(I1
(I3
tp1032
g25
I00
S'\xa3\n4?\xa0\x03\x1c\xbe8a\xec<'
p1033
tp1034
bsbsS'010_potted_meat_can'
p1035
g3
(g4
g8
Ntp1036
Rp1037
(dp1038
g12
Nsg13
Nsg14
g15
(g16
(I0
tp1039
g18
tp1040
Rp1041
(I1
(I4
tp1042
g25
I00
S'x\xab\x19\xbc\xc9\xddc;\xc8\xdd\x1d?p\x83I?'
p1043
tp1044
bsg30
g15
(g16
(I0
tp1045
g18
tp1046
Rp1047
(I1
(I3
tp1048
g25
I00
S'\x96\x7f\xf6>\xff|\x7f\xbdI\xa18='
p1049
tp1050
bsbsS'056_tennis_ball'
p1051
g3
(g4
g8
Ntp1052
Rp1053
(dp1054
g12
Nsg13
Nsg14
g15
(g16
(I0
tp1055
g18
tp1056
Rp1057
(I1
(I4
tp1058
g25
I00
S'4\xbb\x05\xbf\x1fEs\xbe!\x9e@?\x84\x8c\xa5\xbe'
p1059
tp1060
bsg30
g15
(g16
(I0
tp1061
g18
tp1062
Rp1063
(I1
(I3
tp1064
g25
I00
S']]D?4\x0f%=^\x7f\t='
p1065
tp1066
bsbsS'043_phillips_screwdriver'
p1067
g3
(g4
g8
Ntp1068
Rp1069
(dp1070
g12
Nsg13
Nsg14
g15
(g16
(I0
tp1071
g18
tp1072
Rp1073
(I1
(I4
tp1074
g25
I00
S'\xd2c\x9b>\xa6\x8e\x14\xbf\xf4wA?\x82\x0b\xcd\xba'
p1075
tp1076
bsg30
g15
(g16
(I0
tp1077
g18
tp1078
Rp1079
(I1
(I3
tp1080
g25
I00
S'\xb2\xd2\t?\t\x1a\xd5=\xd1\x9f\x92<'
p1081
tp1082
bsbsS'061_foam_brick'
p1083
g3
(g4
g8
Ntp1084
Rp1085
(dp1086
g12
Nsg13
Nsg14
g15
(g16
(I0
tp1087
g18
tp1088
Rp1089
(I1
(I4
tp1090
g25
I00
S'\x947n?\x06S\xbb>u\xe6D\xbc\xd3\xbe#<'
p1091
tp1092
bsg30
g15
(g16
(I0
tp1093
g18
tp1094
Rp1095
(I1
(I3
tp1096
g25
I00
S'\xd4K\x19?Nn\x10\xbd E\xcb<'
p1097
tp1098
bsbsS'054_softball'
p1099
g3
(g4
g8
Ntp1100
Rp1101
(dp1102
g12
Nsg13
Nsg14
g15
(g16
(I0
tp1103
g18
tp1104
Rp1105
(I1
(I4
tp1106
g25
I00
S'\xc4I\xa9=\xd23\x16\xbf\t\xefg\xbe\x04\xe7E?'
p1107
tp1108
bsg30
g15
(g16
(I0
tp1109
g18
tp1110
Rp1111
(I1
(I3
tp1112
g25
I00
S'\xc9}\x06?\x89V\xeb<\x14\xe6N='
p1113
tp1114
bsbsS'025_mug'
p1115
g3
(g4
g8
Ntp1116
Rp1117
(dp1118
g12
Nsg13
Nsg14
g15
(g16
(I0
tp1119
g18
tp1120
Rp1121
(I1
(I4
tp1122
g25
I00
S'\xd4\xf2\x83=[Hc=\xebn[?\t\x0b\x02?'
p1123
tp1124
bsg30
g15
(g16
(I0
tp1125
g18
tp1126
Rp1127
(I1
(I3
tp1128
g25
I00
S'\x86\xea0?\tj\xd0=\x94f2='
p1129
tp1130
bsbsS'038_padlock'
p1131
g3
(g4
g8
Ntp1132
Rp1133
(dp1134
g12
Nsg13
Nsg14
g15
(g16
(I0
tp1135
g18
tp1136
Rp1137
(I1
(I4
tp1138
g25
I00
S'QG\x03;\x85\x0e$\xbe$\xf5^?R\xda\xed\xbe'
p1139
tp1140
bsg30
g15
(g16
(I0
tp1141
g18
tp1142
Rp1143
(I1
(I3
tp1144
g25
I00
S'\x83= ?\xe9_\xc3<\xe2\x18\x9b<'
p1145
tp1146
bsbsa(dp1147
S'077_rubiks_cube'
p1148
g3
(g4
g8
Ntp1149
Rp1150
(dp1151
g12
Nsg13
Nsg14
g15
(g16
(I0
tp1152
g18
tp1153
Rp1154
(I1
(I4
tp1155
g25
I00
S'\xb3\xb7\xc5\xbe\xcb@\x16\xbf,\xa3\xc0>\xa2\xa0\x1a?'
p1156
tp1157
bsg30
g15
(g16
(I0
tp1158
g18
tp1159
Rp1160
(I1
(I3
tp1161
g25
I00
S'}(\x08?\xb8\xde\xf1\xbdA\xac\x00='
p1162
tp1163
bsbsS'058_golf_ball'
p1164
g3
(g4
g8
Ntp1165
Rp1166
(dp1167
g12
Nsg13
Nsg14
g15
(g16
(I0
tp1168
g18
tp1169
Rp1170
(I1
(I4
tp1171
g25
I00
S'\xa6jm?\xddM\xac\xbe\xaf\x04\xde\xbd\r\x0e\xfa='
p1172
tp1173
bsg30
g15
(g16
(I0
tp1174
g18
tp1175
Rp1176
(I1
(I3
tp1177
g25
I00
S'$\xfeA?=\xda\x8e<e~\xad<'
p1178
tp1179
bsbsS'040_large_marker'
p1180
g3
(g4
g8
Ntp1181
Rp1182
(dp1183
g12
Nsg13
Nsg14
g15
(g16
(I0
tp1184
g18
tp1185
Rp1186
(I1
(I4
tp1187
g25
I00
S'"\x0bl?\xe6\xc8\xc4=\x17q\xbf>\x80\x91\xe6\xbc'
p1188
tp1189
bsg30
g15
(g16
(I0
tp1190
g18
tp1191
Rp1192
(I1
(I3
tp1193
g25
I00
S"\xffZ'?\xa3\x8c\xff\xbb\x16\xf1'<"
p1194
tp1195
bsbsS'073-e_lego_duplo'
p1196
g3
(g4
g8
Ntp1197
Rp1198
(dp1199
g12
Nsg13
Nsg14
g15
(g16
(I0
tp1200
g18
tp1201
Rp1202
(I1
(I4
tp1203
g25
I00
S'\xf9:/?)tK\xbev|\x08\xbfU]\xe9\xbe'
p1204
tp1205
bsg30
g15
(g16
(I0
tp1206
g18
tp1207
Rp1208
(I1
(I3
tp1209
g25
I00
S'eA\x1a?E\x9d\x15\xbev\x83\x98<'
p1210
tp1211
bsbsS'065-c_cups'
p1212
g3
(g4
g8
Ntp1213
Rp1214
(dp1215
g12
Nsg13
Nsg14
g15
(g16
(I0
tp1216
g18
tp1217
Rp1218
(I1
(I4
tp1219
g25
I00
S'\x19@\x85<b5.?b\x08\xa6\xbea)(?'
p1220
tp1221
bsg30
g15
(g16
(I0
tp1222
g18
tp1223
Rp1224
(I1
(I3
tp1225
g25
I00
S'\x07\x1b+?L\x15\x1f>\x06\xcc\x04='
p1226
tp1227
bsbsS'015_peach'
p1228
g3
(g4
g8
Ntp1229
Rp1230
(dp1231
g12
Nsg13
Nsg14
g15
(g16
(I0
tp1232
g18
tp1233
Rp1234
(I1
(I4
tp1235
g25
I00
S'P:3=\xba}_\xbd\n\x16s?\xea\x84\x9c>'
p1236
tp1237
bsg30
g15
(g16
(I0
tp1238
g18
tp1239
Rp1240
(I1
(I3
tp1241
g25
I00
S'\xe2\x91\x01?y;H<\x10i\xea<'
p1242
tp1243
bsbsS'061_foam_brick'
p1244
g3
(g4
g8
Ntp1245
Rp1246
(dp1247
g12
Nsg13
Nsg14
g15
(g16
(I0
tp1248
g18
tp1249
Rp1250
(I1
(I4
tp1251
g25
I00
S'\xb9\xbb%>R\x9d|?\xfeH\xd3;\xb9\x89\xc8;'
p1252
tp1253
bsg30
g15
(g16
(I0
tp1254
g18
tp1255
Rp1256
(I1
(I3
tp1257
g25
I00
S'\x82#1?\xf6\x05\x89=UU\xd0<'
p1258
tp1259
bsbsS'055_baseball'
p1260
g3
(g4
g8
Ntp1261
Rp1262
(dp1263
g12
Nsg13
Nsg14
g15
(g16
(I0
tp1264
g18
tp1265
Rp1266
(I1
(I4
tp1267
g25
I00
S'K%0?\xc8\x7fV>)\x81\x11\xbf)\x90\xcc\xbe'
p1268
tp1269
bsg30
g15
(g16
(I0
tp1270
g18
tp1271
Rp1272
(I1
(I3
tp1273
g25
I00
S'(\x0fB?\x99t&\xbd\xc3%\x17='
p1274
tp1275
bsbsS'051_large_clamp'
p1276
g3
(g4
g8
Ntp1277
Rp1278
(dp1279
g12
Nsg13
Nsg14
g15
(g16
(I0
tp1280
g18
tp1281
Rp1282
(I1
(I4
tp1283
g25
I00
S'\x89\xc5\x87=\x95\xea$\xbd\xfd[~?od\xa8='
p1284
tp1285
bsg30
g15
(g16
(I0
tp1286
g18
tp1287
Rp1288
(I1
(I3
tp1289
g25
I00
S'\n\x01\x16?\xb7"\x829\x90X\x92<'
p1290
tp1291
bsbsS'057_racquetball'
p1292
g3
(g4
g8
Ntp1293
Rp1294
(dp1295
g12
Nsg13
Nsg14
g15
(g16
(I0
tp1296
g18
tp1297
Rp1298
(I1
(I4
tp1299
g25
I00
S'\x13\x90a?\xb3\x03\xb3>w\xcf\x96>\xf5\xdc\xf7='
p1300
tp1301
bsg30
g15
(g16
(I0
tp1302
g18
tp1303
Rp1304
(I1
(I3
tp1305
g25
I00
S'e\xff\xdd>\xcb\x069\xbd\xab\x92\xe8<'
p1306
tp1307
bsbsa(dp1308
S'037_scissors'
p1309
g3
(g4
g8
Ntp1310
Rp1311
(dp1312
g12
Nsg13
Nsg14
g15
(g16
(I0
tp1313
g18
tp1314
Rp1315
(I1
(I4
tp1316
g25
I00
S'\xe2\x91\x8d>\xbb\xffu?\xa1\xf5a;@vB\xbc'
p1317
tp1318
bsg30
g15
(g16
(I0
tp1319
g18
tp1320
Rp1321
(I1
(I3
tp1322
g25
I00
S'\xd0\x81!?J"P\xbc\x0b\x84\x00<'
p1323
tp1324
bsbsS'065-f_cups'
p1325
g3
(g4
g8
Ntp1326
Rp1327
(dp1328
g12
Nsg13
Nsg14
g15
(g16
(I0
tp1329
g18
tp1330
Rp1331
(I1
(I4
tp1332
g25
I00
S'Q\xb0\x13?\x13B\xae\xbe\xd5\x1a/?B\xee\x93\xbe'
p1333
tp1334
bsg30
g15
(g16
(I0
tp1335
g18
tp1336
Rp1337
(I1
(I3
tp1338
g25
I00
S'\x80\xbb#?R\xb3\x0e\xbe\x1d\xf3!='
p1339
tp1340
bsbsS'040_large_marker'
p1341
g3
(g4
g8
Ntp1342
Rp1343
(dp1344
g12
Nsg13
Nsg14
g15
(g16
(I0
tp1345
g18
tp1346
Rp1347
(I1
(I4
tp1348
g25
I00
S'@\xb14?\xd8\xe22\xbf\xcb\xcf\xa5\xbd7\xea\xaa\xbd'
p1349
tp1350
bsg30
g15
(g16
(I0
tp1351
g18
tp1352
Rp1353
(I1
(I3
tp1354
g25
I00
S'Y\r\xff>>\x84d\xbe\x9b`]<'
p1355
tp1356
bsbsS'010_potted_meat_can'
p1357
g3
(g4
g8
Ntp1358
Rp1359
(dp1360
g12
Nsg13
Nsg14
g15
(g16
(I0
tp1361
g18
tp1362
Rp1363
(I1
(I4
tp1364
g25
I00
S'\x9c"\x18\xbfn\xfa\xf8\xbe\xe1\xee\xc4>\xd2#\x03?'
p1365
tp1366
bsg30
g15
(g16
(I0
tp1367
g18
tp1368
Rp1369
(I1
(I3
tp1370
g25
I00
S'M\x80\x0c?Nh@\xbc\xcc\xec\x0f='
p1371
tp1372
bsbsS'002_master_chef_can'
p1373
g3
(g4
g8
Ntp1374
Rp1375
(dp1376
g12
Nsg13
Nsg14
g15
(g16
(I0
tp1377
g18
tp1378
Rp1379
(I1
(I4
tp1380
g25
I00
S'\xe6\x0c\x08\xbf\x1ax\x10?(\x95\xed\xbe\x8b|\xdb\xbe'
p1381
tp1382
bsg30
g15
(g16
(I0
tp1383
g18
tp1384
Rp1385
(I1
(I3
tp1386
g25
I00
S'\xaa\xe0=?\xf1$><|\x11\x84='
p1387
tp1388
bsbsS'030_fork'
p1389
g3
(g4
g8
Ntp1390
Rp1391
(dp1392
g12
Nsg13
Nsg14
g15
(g16
(I0
tp1393
g18
tp1394
Rp1395
(I1
(I4
tp1396
g25
I00
S'8\x1e/?\xb2\xae3?\xe5>L\xbd\x0b\xd0D\xbe'
p1397
tp1398
bsg30
g15
(g16
(I0
tp1399
g18
tp1400
Rp1401
(I1
(I3
tp1402
g25
I00
S'\x03\xa51?\x91\xd8^\xbbnS\xd6='
p1403
tp1404
bsbsS'065-h_cups'
p1405
g3
(g4
g8
Ntp1406
Rp1407
(dp1408
g12
Nsg13
Nsg14
g15
(g16
(I0
tp1409
g18
tp1410
Rp1411
(I1
(I4
tp1412
g25
I00
S'\x89\xaf\xb5\xbe&\xfb\x0b\xbf]&\x9e>WM1?'
p1413
tp1414
bsg30
g15
(g16
(I0
tp1415
g18
tp1416
Rp1417
(I1
(I3
tp1418
g25
I00
S'hP%?\x0b\t_\xbd<\xfbm='
p1419
tp1420
bsbsS'028_skillet_lid'
p1421
g3
(g4
g8
Ntp1422
Rp1423
(dp1424
g12
Nsg13
Nsg14
g15
(g16
(I0
tp1425
g18
tp1426
Rp1427
(I1
(I4
tp1428
g25
I00
S'\x15\xc2d?\x97;\x85<\xbc\x08\xa1=& \xe2>'
p1429
tp1430
bsg30
g15
(g16
(I0
tp1431
g18
tp1432
Rp1433
(I1
(I3
tp1434
g25
I00
S'\xfdZ\r?\xcc\xeas=\xbfr\xd9='
p1435
tp1436
bsbsS'055_baseball'
p1437
g3
(g4
g8
Ntp1438
Rp1439
(dp1440
g12
Nsg13
Nsg14
g15
(g16
(I0
tp1441
g18
tp1442
Rp1443
(I1
(I4
tp1444
g25
I00
S'\xcex\xd9<\x13\x07\x86\xbe\xfe\xa7Y?9s\xe9\xbe'
p1445
tp1446
bsg30
g15
(g16
(I0
tp1447
g18
tp1448
Rp1449
(I1
(I3
tp1450
g25
I00
S'\x89\x9f??3\x0c\xbe\xbd\x15\x82\x1a='
p1451
tp1452
bsbsS'050_medium_clamp'
p1453
g3
(g4
g8
Ntp1454
Rp1455
(dp1456
g12
Nsg13
Nsg14
g15
(g16
(I0
tp1457
g18
tp1458
Rp1459
(I1
(I4
tp1460
g25
I00
S'$\xb9x<\xea\xa5\x94=e\n\xdf\xbeB\xa6e?'
p1461
tp1462
bsg30
g15
(g16
(I0
tp1463
g18
tp1464
Rp1465
(I1
(I3
tp1466
g25
I00
S'&\xab8?\x89\xee\xb2=UOs<'
p1467
tp1468
bsbsa(dp1469
S'037_scissors'
p1470
g3
(g4
g8
Ntp1471
Rp1472
(dp1473
g12
Nsg13
Nsg14
g15
(g16
(I0
tp1474
g18
tp1475
Rp1476
(I1
(I4
tp1477
g25
I00
S'\xa0\x12y;\x01x\x07<3\xa4t?2\xbf\x96\xbe'
p1478
tp1479
bsg30
g15
(g16
(I0
tp1480
g18
tp1481
Rp1482
(I1
(I3
tp1483
g25
I00
S'KK@?\xdc.\xf0\xbd\x8b\xec\x1c<'
p1484
tp1485
bsbsS'005_tomato_soup_can'
p1486
g3
(g4
g8
Ntp1487
Rp1488
(dp1489
g12
Nsg13
Nsg14
g15
(g16
(I0
tp1490
g18
tp1491
Rp1492
(I1
(I4
tp1493
g25
I00
S'\x90\x996>m\xd5.\xbf\xe4!0?$\xa2,>'
p1494
tp1495
bsg30
g15
(g16
(I0
tp1496
g18
tp1497
Rp1498
(I1
(I3
tp1499
g25
I00
S'\xa0+D?`<!<Y\xb7\n='
p1500
tp1501
bsbsS'058_golf_ball'
p1502
g3
(g4
g8
Ntp1503
Rp1504
(dp1505
g12
Nsg13
Nsg14
g15
(g16
(I0
tp1506
g18
tp1507
Rp1508
(I1
(I4
tp1509
g25
I00
S'U\xcf@?].\x13?\xc4\xee\xbc\xbc\xccA\xa3>'
p1510
tp1511
bsg30
g15
(g16
(I0
tp1512
g18
tp1513
Rp1514
(I1
(I3
tp1515
g25
I00
S'\x8b\x136?c\xfc\xd3\xbc\xe9.\xaf<'
p1516
tp1517
bsbsS'070-b_colored_wood_blocks'
p1518
g3
(g4
g8
Ntp1519
Rp1520
(dp1521
g12
Nsg13
Nsg14
g15
(g16
(I0
tp1522
g18
tp1523
Rp1524
(I1
(I4
tp1525
g25
I00
S'\xa8\xab3?\xf8S6?\xb41E\xbc\xff\x1a\x9d;'
p1526
tp1527
bsg30
g15
(g16
(I0
tp1528
g18
tp1529
Rp1530
(I1
(I3
tp1531
g25
I00
S'\xa6\x83\x1b?\x185-\xbd\xb1\xc7d='
p1532
tp1533
bsbsS'056_tennis_ball'
p1534
g3
(g4
g8
Ntp1535
Rp1536
(dp1537
g12
Nsg13
Nsg14
g15
(g16
(I0
tp1538
g18
tp1539
Rp1540
(I1
(I4
tp1541
g25
I00
S'Rk\xef\xbe.\x8e\x1e?\xc7\x1c\x15\xbf\xeb\x96w>'
p1542
tp1543
bsg30
g15
(g16
(I0
tp1544
g18
tp1545
Rp1546
(I1
(I3
tp1547
g25
I00
S'\x9a\xb9\xe6>7R\xc0\xbbL\xa1\x06='
p1548
tp1549
bsbsS'017_orange'
p1550
g3
(g4
g8
Ntp1551
Rp1552
(dp1553
g12
Nsg13
Nsg14
g15
(g16
(I0
tp1554
g18
tp1555
Rp1556
(I1
(I4
tp1557
g25
I00
S'\x88\xe5\xce\xbe\xc6\x9a\xe6\xbeY/\x05\xbf\x15G\x1a?'
p1558
tp1559
bsg30
g15
(g16
(I0
tp1560
g18
tp1561
Rp1562
(I1
(I3
tp1563
g25
I00
S'\x7f\xbb\x18?\x03PS=\x87\n\x13='
p1564
tp1565
bsbsS'061_foam_brick'
p1566
g3
(g4
g8
Ntp1567
Rp1568
(dp1569
g12
Nsg13
Nsg14
g15
(g16
(I0
tp1570
g18
tp1571
Rp1572
(I1
(I4
tp1573
g25
I00
S'4\xd9K=;\xab\x7f?m\xbf\xed;\x80\xc1\xf4;'
p1574
tp1575
bsg30
g15
(g16
(I0
tp1576
g18
tp1577
Rp1578
(I1
(I3
tp1579
g25
I00
S'\x19&\x1f?b\xd2\r>\xc3\xfc\xdb<'
p1580
tp1581
bsbsS'073-d_lego_duplo'
p1582
g3
(g4
g8
Ntp1583
Rp1584
(dp1585
g12
Nsg13
Nsg14
g15
(g16
(I0
tp1586
g18
tp1587
Rp1588
(I1
(I4
tp1589
g25
I00
S'\x83\xb8\x07<\xdd<\xdc\xbb\x7f+D?\xd7t$?'
p1590
tp1591
bsg30
g15
(g16
(I0
tp1592
g18
tp1593
Rp1594
(I1
(I3
tp1595
g25
I00
S'\xeel\x0b?\x977\xcf=(\xa2\x9d<'
p1596
tp1597
bsbsS'071_nine_hole_peg_test'
p1598
g3
(g4
g8
Ntp1599
Rp1600
(dp1601
g12
Nsg13
Nsg14
g15
(g16
(I0
tp1602
g18
tp1603
Rp1604
(I1
(I4
tp1605
g25
I00
S'\xe3\xc9\xda\xbb\xa5t\x95;0\x8f\x13?\x1d/Q?'
p1606
tp1607
bsg30
g15
(g16
(I0
tp1608
g18
tp1609
Rp1610
(I1
(I3
tp1611
g25
I00
S'\xe2\xe4\x15?\xe8!Y\xbd\x12r\xb0<'
p1612
tp1613
bsbsS'057_racquetball'
p1614
g3
(g4
g8
Ntp1615
Rp1616
(dp1617
g12
Nsg13
Nsg14
g15
(g16
(I0
tp1618
g18
tp1619
Rp1620
(I1
(I4
tp1621
g25
I00
S"Q'\xe5\xbd\xb82\x87\xbe\x9f\xa5n?]\x0bb\xbe"
p1622
tp1623
bsg30
g15
(g16
(I0
tp1624
g18
tp1625
Rp1626
(I1
(I3
tp1627
g25
I00
S'\xbcB\x0b?\xc6\xc9W\xbe\x9c\xac\x01='
p1628
tp1629
bsbsa.